target datalayout = "e-m:e-p270:32:32-p271:32:32-p272:64:64-i64:64-i128:128-f80:128-n8:16:32:64-S128"
target triple = "x86_64-pc-linux-gnu"

%"class.std::__cxx11::basic_string" = type { %"struct.std::__cxx11::basic_string<char>::_Alloc_hider", i64, %union.anon }
%"struct.std::__cxx11::basic_string<char>::_Alloc_hider" = type { ptr }
%union.anon = type { i64, [8 x i8] }
%class.StatementAssign = type { %class.Statement, i32, ptr, ptr, ptr, ptr, %"class.std::__cxx11::basic_string", %"class.std::__cxx11::basic_string" }
%class.Statement = type { ptr, i32, i32, ptr, ptr }

@.str.3 = private unnamed_addr constant [2 x i8] c"=\00", align 1
@.str.4 = private unnamed_addr constant [3 x i8] c"*=\00", align 1
@.str.5 = private unnamed_addr constant [3 x i8] c"/=\00", align 1
@.str.6 = private unnamed_addr constant [3 x i8] c"%=\00", align 1
@.str.7 = private unnamed_addr constant [3 x i8] c"+=\00", align 1
@.str.8 = private unnamed_addr constant [3 x i8] c"-=\00", align 1
@.str.9 = private unnamed_addr constant [4 x i8] c"<<=\00", align 1
@.str.10 = private unnamed_addr constant [4 x i8] c">>=\00", align 1
@.str.11 = private unnamed_addr constant [3 x i8] c"&=\00", align 1
@.str.12 = private unnamed_addr constant [3 x i8] c"^=\00", align 1
@.str.13 = private unnamed_addr constant [3 x i8] c"|=\00", align 1
@.str.14 = private unnamed_addr constant [3 x i8] c"++\00", align 1
@.str.15 = private unnamed_addr constant [3 x i8] c"--\00", align 1

; Function Attrs: mustprogress uwtable
define dso_local void @_ZNK15StatementAssign9output_opERSo(ptr noundef nonnull align 8 dereferenceable(136) %0, ptr noundef nonnull align 8 dereferenceable(8) %1) #5 align 2 {
  %3 = alloca ptr, align 8
  %4 = alloca ptr, align 8
  store ptr %0, ptr %3, align 8
  store ptr %1, ptr %4, align 8
  %5 = load ptr, ptr %3, align 8
  %6 = getelementptr inbounds %class.StatementAssign, ptr %5, i32 0, i32 1
  %7 = load i32, ptr %6, align 8
  switch i32 %7, label %53 [
    i32 0, label %8
    i32 1, label %11
    i32 2, label %14
    i32 3, label %17
    i32 4, label %20
    i32 5, label %23
    i32 6, label %26
    i32 7, label %29
    i32 8, label %32
    i32 9, label %35
    i32 10, label %38
    i32 11, label %41
    i32 12, label %44
    i32 13, label %47
    i32 14, label %50
  ]

8:                                                ; preds = %2
  %9 = load ptr, ptr %4, align 8
  %10 = call noundef nonnull align 8 dereferenceable(8) ptr @_ZStlsISt11char_traitsIcEERSt13basic_ostreamIcT_ES5_PKc(ptr noundef nonnull align 8 dereferenceable(8) %9, ptr noundef @.str.3)
  br label %53

11:                                               ; preds = %2
  %12 = load ptr, ptr %4, align 8
  %13 = call noundef nonnull align 8 dereferenceable(8) ptr @_ZStlsISt11char_traitsIcEERSt13basic_ostreamIcT_ES5_PKc(ptr noundef nonnull align 8 dereferenceable(8) %12, ptr noundef @.str.4)
  br label %53

14:                                               ; preds = %2
  %15 = load ptr, ptr %4, align 8
  %16 = call noundef nonnull align 8 dereferenceable(8) ptr @_ZStlsISt11char_traitsIcEERSt13basic_ostreamIcT_ES5_PKc(ptr noundef nonnull align 8 dereferenceable(8) %15, ptr noundef @.str.5)
  br label %53

17:                                               ; preds = %2
  %18 = load ptr, ptr %4, align 8
  %19 = call noundef nonnull align 8 dereferenceable(8) ptr @_ZStlsISt11char_traitsIcEERSt13basic_ostreamIcT_ES5_PKc(ptr noundef nonnull align 8 dereferenceable(8) %18, ptr noundef @.str.6)
  br label %53

20:                                               ; preds = %2
  %21 = load ptr, ptr %4, align 8
  %22 = call noundef nonnull align 8 dereferenceable(8) ptr @_ZStlsISt11char_traitsIcEERSt13basic_ostreamIcT_ES5_PKc(ptr noundef nonnull align 8 dereferenceable(8) %21, ptr noundef @.str.7)
  br label %53

23:                                               ; preds = %2
  %24 = load ptr, ptr %4, align 8
  %25 = call noundef nonnull align 8 dereferenceable(8) ptr @_ZStlsISt11char_traitsIcEERSt13basic_ostreamIcT_ES5_PKc(ptr noundef nonnull align 8 dereferenceable(8) %24, ptr noundef @.str.8)
  br label %53

26:                                               ; preds = %2
  %27 = load ptr, ptr %4, align 8
  %28 = call noundef nonnull align 8 dereferenceable(8) ptr @_ZStlsISt11char_traitsIcEERSt13basic_ostreamIcT_ES5_PKc(ptr noundef nonnull align 8 dereferenceable(8) %27, ptr noundef @.str.9)
  br label %53

29:                                               ; preds = %2
  %30 = load ptr, ptr %4, align 8
  %31 = call noundef nonnull align 8 dereferenceable(8) ptr @_ZStlsISt11char_traitsIcEERSt13basic_ostreamIcT_ES5_PKc(ptr noundef nonnull align 8 dereferenceable(8) %30, ptr noundef @.str.10)
  br label %53

32:                                               ; preds = %2
  %33 = load ptr, ptr %4, align 8
  %34 = call noundef nonnull align 8 dereferenceable(8) ptr @_ZStlsISt11char_traitsIcEERSt13basic_ostreamIcT_ES5_PKc(ptr noundef nonnull align 8 dereferenceable(8) %33, ptr noundef @.str.11)
  br label %53

35:                                               ; preds = %2
  %36 = load ptr, ptr %4, align 8
  %37 = call noundef nonnull align 8 dereferenceable(8) ptr @_ZStlsISt11char_traitsIcEERSt13basic_ostreamIcT_ES5_PKc(ptr noundef nonnull align 8 dereferenceable(8) %36, ptr noundef @.str.12)
  br label %53

38:                                               ; preds = %2
  %39 = load ptr, ptr %4, align 8
  %40 = call noundef nonnull align 8 dereferenceable(8) ptr @_ZStlsISt11char_traitsIcEERSt13basic_ostreamIcT_ES5_PKc(ptr noundef nonnull align 8 dereferenceable(8) %39, ptr noundef @.str.13)
  br label %53

41:                                               ; preds = %2
  %42 = load ptr, ptr %4, align 8
  %43 = call noundef nonnull align 8 dereferenceable(8) ptr @_ZStlsISt11char_traitsIcEERSt13basic_ostreamIcT_ES5_PKc(ptr noundef nonnull align 8 dereferenceable(8) %42, ptr noundef @.str.14)
  br label %53

44:                                               ; preds = %2
  %45 = load ptr, ptr %4, align 8
  %46 = call noundef nonnull align 8 dereferenceable(8) ptr @_ZStlsISt11char_traitsIcEERSt13basic_ostreamIcT_ES5_PKc(ptr noundef nonnull align 8 dereferenceable(8) %45, ptr noundef @.str.15)
  br label %53

47:                                               ; preds = %2
  %48 = load ptr, ptr %4, align 8
  %49 = call noundef nonnull align 8 dereferenceable(8) ptr @_ZStlsISt11char_traitsIcEERSt13basic_ostreamIcT_ES5_PKc(ptr noundef nonnull align 8 dereferenceable(8) %48, ptr noundef @.str.14)
  br label %53

50:                                               ; preds = %2
  %51 = load ptr, ptr %4, align 8
  %52 = call noundef nonnull align 8 dereferenceable(8) ptr @_ZStlsISt11char_traitsIcEERSt13basic_ostreamIcT_ES5_PKc(ptr noundef nonnull align 8 dereferenceable(8) %51, ptr noundef @.str.15)
  br label %53

53:                                               ; preds = %50, %47, %44, %41, %38, %35, %32, %29, %26, %23, %20, %17, %14, %11, %8, %2
  ret void
}