; Function Attrs: mustprogress uwtable
define dso_local void @_ZNK15StatementAssign9output_opERSo(ptr nocapture noundef nonnull readonly align 8 dereferenceable(136) %0, ptr noundef nonnull align 8 dereferenceable(8) %1) local_unnamed_addr #4 align 2 {
  %3 = getelementptr inbounds i8, ptr %0, i64 32
  %4 = load i32, ptr %3, align 8
  %5 = icmp ult i32 %4, 15
  br i1 %5, label %switch.lookup, label %8

switch.lookup:                                    ; preds = %2
  %6 = zext nneg i32 %4 to i64
  %switch.gep = getelementptr inbounds [15 x ptr], ptr @switch.table._ZNK15StatementAssign12OutputAsExprERSo, i64 0, i64 %6
  %switch.load = load ptr, ptr %switch.gep, align 8
  %7 = tail call noundef nonnull align 8 dereferenceable(8) ptr @_ZStlsISt11char_traitsIcEERSt13basic_ostreamIcT_ES5_PKc(ptr noundef nonnull align 8 dereferenceable(8) %1, ptr noundef nonnull %switch.load)
  br label %8

8:                                                ; preds = %2, %switch.lookup
  ret void
}